target datalayout = "e-m:e-p270:32:32-p271:32:32-p272:64:64-i64:64-i128:128-f80:128-n8:16:32:64-S128"
target triple = "x86_64-pc-linux-gnu"

%class.QString = type { %struct.QArrayDataPointer.4 }
%struct.QArrayDataPointer.4 = type { ptr, ptr, i64 }
%class.QTreeWidgetItem.base = type <{ ptr, i32, [4 x i8], %class.QList, ptr, ptr, ptr, %class.QList.0, %class.QFlags }>
%class.QList = type { %struct.QArrayDataPointer }
%struct.QArrayDataPointer = type { ptr, ptr, i64 }
%class.QList.0 = type { %struct.QArrayDataPointer.3 }
%struct.QArrayDataPointer.3 = type { ptr, ptr, i64 }
%class.QFlags = type { i32 }
%class.QVariant = type { %"struct.QVariant::Private" }
%"struct.QVariant::Private" = type { %union.anon, i64 }
%union.anon = type { ptr, [16 x i8] }
%class.QBasicAtomicInteger = type { %"struct.std::atomic" }
%"struct.std::atomic" = type { %"struct.std::__atomic_base" }
%"struct.std::__atomic_base" = type { i32 }
%struct.nstime_t = type { i64, i32 }
%class.QMap.8 = type { %"class.QtPrivate::QExplicitlySharedDataPointerV2.9" }
%"class.QtPrivate::QExplicitlySharedDataPointerV2.9" = type { ptr }
%class.LBMLBTRUReceiverTransportEntry = type { %class.QTreeWidgetItem.base, %class.QString, i64, i64, i64, i64, i64, i64, i64, %struct.nstime_t, i8, %struct.nstime_t, %class.QMap.8, %class.QMap.8, %class.QMap.20 }
%class.QMap.20 = type { %"class.QtPrivate::QExplicitlySharedDataPointerV2.21" }
%"class.QtPrivate::QExplicitlySharedDataPointerV2.21" = type { ptr }
%struct.QArrayData = type { %class.QBasicAtomicInteger, %class.QFlags.46, i64 }
%class.QFlags.46 = type { i32 }

; Function Attrs: mustprogress nounwind null_pointer_is_valid sspstrong uwtable
define linkonce_odr noundef i32 @_ZNSt13__atomic_baseIiEppEv(ptr noundef align 4 dereferenceable_or_null(4) %0) #5 comdat align 2 {
  %2 = alloca ptr, align 8
  %3 = alloca i32, align 4
  %4 = alloca i32, align 4
  store ptr %0, ptr %2, align 8
  %5 = load ptr, ptr %2, align 8
  %6 = getelementptr inbounds nuw %"struct.std::__atomic_base", ptr %5, i32 0, i32 0
  store i32 1, ptr %3, align 4
  %7 = load i32, ptr %3, align 4
  %8 = atomicrmw add ptr %6, i32 %7 seq_cst, align 4
  %9 = add i32 %8, %7
  store i32 %9, ptr %4, align 4
  %10 = load i32, ptr %4, align 4
  ret i32 %10
}

; Function Attrs: noinline noreturn nounwind null_pointer_is_valid sspstrong uwtable
define linkonce_odr hidden void @__clang_call_terminate(ptr noundef %0) #8 comdat {
  %2 = call ptr @__cxa_begin_catch(ptr %0) #22
  call void @_ZSt9terminatev() #23
  unreachable
}

; Function Attrs: inlinehint mustprogress nounwind null_pointer_is_valid sspstrong uwtable
define linkonce_odr noundef zeroext i1 @_ZN10QAtomicOpsIiE3refIiEEbRSt6atomicIT_E(ptr noundef align 4 dereferenceable(4) %0) #6 comdat align 2 {
  %2 = alloca ptr, align 8
  store ptr %0, ptr %2, align 8
  %3 = load ptr, ptr %2, align 8
  %4 = call noundef i32 @_ZNSt13__atomic_baseIiEppEv(ptr noundef align 4 dereferenceable_or_null(4) %3) #22
  %5 = icmp ne i32 %4, 0
  ret i1 %5
}

; Function Attrs: mustprogress nounwind null_pointer_is_valid sspstrong uwtable
define linkonce_odr noundef zeroext i1 @_ZN19QBasicAtomicIntegerIiE3refEv(ptr noundef align 4 dereferenceable_or_null(4) %0) #5 comdat align 2 personality ptr @__gxx_personality_v0 {
  %2 = alloca ptr, align 8
  store ptr %0, ptr %2, align 8
  %3 = load ptr, ptr %2, align 8
  %4 = getelementptr inbounds nuw %class.QBasicAtomicInteger, ptr %3, i32 0, i32 0
  %5 = invoke noundef zeroext i1 @_ZN10QAtomicOpsIiE3refIiEEbRSt6atomicIT_E(ptr noundef align 4 dereferenceable(4) %4)
          to label %6 unwind label %7

6:                                                ; preds = %1
  ret i1 %5

7:                                                ; preds = %1
  %8 = landingpad { ptr, i32 }
          catch ptr null
  %9 = extractvalue { ptr, i32 } %8, 0
  call void @__clang_call_terminate(ptr %9) #23
  unreachable
}

; Function Attrs: mustprogress nounwind null_pointer_is_valid sspstrong uwtable
define linkonce_odr noundef zeroext i1 @_ZN10QArrayData3refEv(ptr noundef align 8 dereferenceable_or_null(16) %0) #5 comdat align 2 {
  %2 = alloca ptr, align 8
  store ptr %0, ptr %2, align 8
  %3 = load ptr, ptr %2, align 8
  %4 = getelementptr inbounds nuw %struct.QArrayData, ptr %3, i32 0, i32 0
  %5 = call noundef zeroext i1 @_ZN19QBasicAtomicIntegerIiE3refEv(ptr noundef align 4 dereferenceable_or_null(4) %4) #22
  ret i1 true
}

; Function Attrs: mustprogress nounwind null_pointer_is_valid sspstrong uwtable
define linkonce_odr void @_ZN17QArrayDataPointerIDsE3refEv(ptr noundef align 8 dereferenceable_or_null(24) %0) #5 comdat align 2 {
  %2 = alloca ptr, align 8
  store ptr %0, ptr %2, align 8
  %3 = load ptr, ptr %2, align 8
  %4 = getelementptr inbounds nuw %struct.QArrayDataPointer.4, ptr %3, i32 0, i32 0
  %5 = load ptr, ptr %4, align 8
  %6 = icmp ne ptr %5, null
  br i1 %6, label %7, label %11

7:                                                ; preds = %1
  %8 = getelementptr inbounds nuw %struct.QArrayDataPointer.4, ptr %3, i32 0, i32 0
  %9 = load ptr, ptr %8, align 8
  %10 = call noundef zeroext i1 @_ZN10QArrayData3refEv(ptr noundef align 8 dereferenceable_or_null(16) %9) #22
  br label %11

11:                                               ; preds = %7, %1
  ret void
}

; Function Attrs: mustprogress nounwind null_pointer_is_valid sspstrong uwtable
define linkonce_odr void @_ZN9QtPrivate30QExplicitlySharedDataPointerV2I8QMapDataISt3mapIjP24LBMLBTRUCREQRequestEntrySt4lessIjESaISt4pairIKjS4_EEEEEC2Ev(ptr noundef align 8 dereferenceable_or_null(8) %0) unnamed_addr #5 comdat align 2 {
  %2 = alloca ptr, align 8
  store ptr %0, ptr %2, align 8
  %3 = load ptr, ptr %2, align 8
  %4 = getelementptr inbounds nuw %"class.QtPrivate::QExplicitlySharedDataPointerV2.21", ptr %3, i32 0, i32 0
  store ptr null, ptr %4, align 8
  ret void
}

; Function Attrs: mustprogress nounwind null_pointer_is_valid sspstrong uwtable
define linkonce_odr void @_ZN9QtPrivate30QExplicitlySharedDataPointerV2I8QMapDataISt3mapIjP16LBMLBTRUSQNEntrySt4lessIjESaISt4pairIKjS4_EEEEEC2Ev(ptr noundef align 8 dereferenceable_or_null(8) %0) unnamed_addr #5 comdat align 2 {
  %2 = alloca ptr, align 8
  store ptr %0, ptr %2, align 8
  %3 = load ptr, ptr %2, align 8
  %4 = getelementptr inbounds nuw %"class.QtPrivate::QExplicitlySharedDataPointerV2.9", ptr %3, i32 0, i32 0
  store ptr null, ptr %4, align 8
  ret void
}

; Function Attrs: mustprogress nounwind null_pointer_is_valid sspstrong uwtable
define linkonce_odr void @_ZN17QArrayDataPointerIDsEC2ERKS0_(ptr noundef align 8 dereferenceable_or_null(24) %0, ptr noundef align 8 dereferenceable(24) %1) unnamed_addr #5 comdat align 2 {
  %3 = alloca ptr, align 8
  %4 = alloca ptr, align 8
  store ptr %0, ptr %3, align 8
  store ptr %1, ptr %4, align 8
  %5 = load ptr, ptr %3, align 8
  %6 = getelementptr inbounds nuw %struct.QArrayDataPointer.4, ptr %5, i32 0, i32 0
  %7 = load ptr, ptr %4, align 8
  %8 = getelementptr inbounds nuw %struct.QArrayDataPointer.4, ptr %7, i32 0, i32 0
  %9 = load ptr, ptr %8, align 8
  store ptr %9, ptr %6, align 8
  %10 = getelementptr inbounds nuw %struct.QArrayDataPointer.4, ptr %5, i32 0, i32 1
  %11 = load ptr, ptr %4, align 8
  %12 = getelementptr inbounds nuw %struct.QArrayDataPointer.4, ptr %11, i32 0, i32 1
  %13 = load ptr, ptr %12, align 8
  store ptr %13, ptr %10, align 8
  %14 = getelementptr inbounds nuw %struct.QArrayDataPointer.4, ptr %5, i32 0, i32 2
  %15 = load ptr, ptr %4, align 8
  %16 = getelementptr inbounds nuw %struct.QArrayDataPointer.4, ptr %15, i32 0, i32 2
  %17 = load i64, ptr %16, align 8
  store i64 %17, ptr %14, align 8
  call void @_ZN17QArrayDataPointerIDsE3refEv(ptr noundef align 8 dereferenceable_or_null(24) %5) #22
  ret void
}

; Function Attrs: inlinehint mustprogress null_pointer_is_valid sspstrong uwtable
define linkonce_odr void @_ZN15QTreeWidgetItem7setTextEiRK7QString(ptr noundef align 8 dereferenceable_or_null(92) %0, i32 noundef %1, ptr noundef align 8 dereferenceable(24) %2) #2 comdat align 2 personality ptr @__gxx_personality_v0 {
  %4 = alloca ptr, align 8
  %5 = alloca i32, align 4
  %6 = alloca ptr, align 8
  %7 = alloca %class.QVariant, align 8
  %8 = alloca ptr, align 8
  %9 = alloca i32, align 4
  store ptr %0, ptr %4, align 8
  store i32 %1, ptr %5, align 4
  store ptr %2, ptr %6, align 8
  %10 = load ptr, ptr %4, align 8
  %11 = load i32, ptr %5, align 4
  call void @llvm.lifetime.start.p0(i64 32, ptr %7) #22
  %12 = load ptr, ptr %6, align 8
  call void @_ZN8QVariantC1ERK7QString(ptr noundef align 8 dereferenceable_or_null(32) %7, ptr noundef align 8 dereferenceable(24) %12)
  %13 = load ptr, ptr %10, align 8
  %14 = getelementptr inbounds ptr, ptr %13, i64 4
  %15 = load ptr, ptr %14, align 8
  invoke void %15(ptr noundef align 8 dereferenceable_or_null(92) %10, i32 noundef %11, i32 noundef 0, ptr noundef align 8 dereferenceable(32) %7)
          to label %16 unwind label %17

16:                                               ; preds = %3
  call void @_ZN8QVariantD1Ev(ptr noundef align 8 dereferenceable_or_null(32) %7) #22
  call void @llvm.lifetime.end.p0(i64 32, ptr %7) #22
  ret void

17:                                               ; preds = %3
  %18 = landingpad { ptr, i32 }
          cleanup
  %19 = extractvalue { ptr, i32 } %18, 0
  store ptr %19, ptr %8, align 8
  %20 = extractvalue { ptr, i32 } %18, 1
  store i32 %20, ptr %9, align 4
  call void @_ZN8QVariantD1Ev(ptr noundef align 8 dereferenceable_or_null(32) %7) #22
  call void @llvm.lifetime.end.p0(i64 32, ptr %7) #22
  br label %21

21:                                               ; preds = %17
  %22 = load ptr, ptr %8, align 8
  %23 = load i32, ptr %9, align 4
  %24 = insertvalue { ptr, i32 } poison, ptr %22, 0
  %25 = insertvalue { ptr, i32 } %24, i32 %23, 1
  resume { ptr, i32 } %25
}

; Function Attrs: mustprogress nounwind null_pointer_is_valid sspstrong uwtable
define linkonce_odr void @_ZN4QMapIjP24LBMLBTRUCREQRequestEntryEC2Ev(ptr noundef align 8 dereferenceable_or_null(8) %0) unnamed_addr #5 comdat align 2 {
  %2 = alloca ptr, align 8
  store ptr %0, ptr %2, align 8
  %3 = load ptr, ptr %2, align 8
  %4 = getelementptr inbounds nuw %class.QMap.20, ptr %3, i32 0, i32 0
  call void @_ZN9QtPrivate30QExplicitlySharedDataPointerV2I8QMapDataISt3mapIjP24LBMLBTRUCREQRequestEntrySt4lessIjESaISt4pairIKjS4_EEEEEC2Ev(ptr noundef align 8 dereferenceable_or_null(8) %4) #22
  ret void
}

; Function Attrs: mustprogress nounwind null_pointer_is_valid sspstrong uwtable
define linkonce_odr void @_ZN4QMapIjP16LBMLBTRUSQNEntryEC2Ev(ptr noundef align 8 dereferenceable_or_null(8) %0) unnamed_addr #5 comdat align 2 {
  %2 = alloca ptr, align 8
  store ptr %0, ptr %2, align 8
  %3 = load ptr, ptr %2, align 8
  %4 = getelementptr inbounds nuw %class.QMap.8, ptr %3, i32 0, i32 0
  call void @_ZN9QtPrivate30QExplicitlySharedDataPointerV2I8QMapDataISt3mapIjP16LBMLBTRUSQNEntrySt4lessIjESaISt4pairIKjS4_EEEEEC2Ev(ptr noundef align 8 dereferenceable_or_null(8) %4) #22
  ret void
}

; Function Attrs: inlinehint mustprogress nounwind null_pointer_is_valid sspstrong uwtable
define linkonce_odr void @_ZN7QStringC2ERKS_(ptr noundef align 8 dereferenceable_or_null(24) %0, ptr noundef align 8 dereferenceable(24) %1) unnamed_addr #6 comdat align 2 {
  %3 = alloca ptr, align 8
  %4 = alloca ptr, align 8
  store ptr %0, ptr %3, align 8
  store ptr %1, ptr %4, align 8
  %5 = load ptr, ptr %3, align 8
  %6 = getelementptr inbounds nuw %class.QString, ptr %5, i32 0, i32 0
  %7 = load ptr, ptr %4, align 8
  %8 = getelementptr inbounds nuw %class.QString, ptr %7, i32 0, i32 0
  call void @_ZN17QArrayDataPointerIDsEC2ERKS0_(ptr noundef align 8 dereferenceable_or_null(24) %6, ptr noundef align 8 dereferenceable(24) %8) #22
  ret void
}

; Function Attrs: mustprogress null_pointer_is_valid sspstrong uwtable
define void @_ZN30LBMLBTRUReceiverTransportEntryC2ERK7QString(ptr noundef align 8 dereferenceable_or_null(240) %0, ptr noundef align 8 dereferenceable(24) %1) unnamed_addr #0 align 2 personality ptr @__gxx_personality_v0 {
  %3 = alloca ptr, align 8
  %4 = alloca ptr, align 8
  %5 = alloca ptr, align 8
  %6 = alloca i32, align 4
  store ptr %0, ptr %3, align 8
  store ptr %1, ptr %4, align 8
  %7 = load ptr, ptr %3, align 8
  call void @_ZN15QTreeWidgetItemC2Ei(ptr noundef align 8 dereferenceable_or_null(92) %7, i32 noundef 0)
  store ptr getelementptr inbounds inrange(-16, 64) ({ [10 x ptr] }, ptr @_ZTV30LBMLBTRUReceiverTransportEntry, i32 0, i32 0, i32 2), ptr %7, align 8
  %8 = getelementptr inbounds nuw %class.LBMLBTRUReceiverTransportEntry, ptr %7, i32 0, i32 1
  %9 = load ptr, ptr %4, align 8
  call void @_ZN7QStringC2ERKS_(ptr noundef align 8 dereferenceable_or_null(24) %8, ptr noundef align 8 dereferenceable(24) %9) #22
  %10 = getelementptr inbounds nuw %class.LBMLBTRUReceiverTransportEntry, ptr %7, i32 0, i32 2
  store i64 0, ptr %10, align 8
  %11 = getelementptr inbounds nuw %class.LBMLBTRUReceiverTransportEntry, ptr %7, i32 0, i32 3
  store i64 0, ptr %11, align 8
  %12 = getelementptr inbounds nuw %class.LBMLBTRUReceiverTransportEntry, ptr %7, i32 0, i32 4
  store i64 0, ptr %12, align 8
  %13 = getelementptr inbounds nuw %class.LBMLBTRUReceiverTransportEntry, ptr %7, i32 0, i32 5
  store i64 0, ptr %13, align 8
  %14 = getelementptr inbounds nuw %class.LBMLBTRUReceiverTransportEntry, ptr %7, i32 0, i32 6
  store i64 0, ptr %14, align 8
  %15 = getelementptr inbounds nuw %class.LBMLBTRUReceiverTransportEntry, ptr %7, i32 0, i32 7
  store i64 0, ptr %15, align 8
  %16 = getelementptr inbounds nuw %class.LBMLBTRUReceiverTransportEntry, ptr %7, i32 0, i32 8
  store i64 0, ptr %16, align 8
  %17 = getelementptr inbounds nuw %class.LBMLBTRUReceiverTransportEntry, ptr %7, i32 0, i32 10
  store i8 0, ptr %17, align 8
  %18 = getelementptr inbounds nuw %class.LBMLBTRUReceiverTransportEntry, ptr %7, i32 0, i32 12
  call void @llvm.memset.p0.i64(ptr align 8 %18, i8 0, i64 8, i1 false)
  call void @_ZN4QMapIjP16LBMLBTRUSQNEntryEC2Ev(ptr noundef align 8 dereferenceable_or_null(8) %18) #22
  %19 = getelementptr inbounds nuw %class.LBMLBTRUReceiverTransportEntry, ptr %7, i32 0, i32 13
  call void @llvm.memset.p0.i64(ptr align 8 %19, i8 0, i64 8, i1 false)
  call void @_ZN4QMapIjP16LBMLBTRUSQNEntryEC2Ev(ptr noundef align 8 dereferenceable_or_null(8) %19) #22
  %20 = getelementptr inbounds nuw %class.LBMLBTRUReceiverTransportEntry, ptr %7, i32 0, i32 14
  call void @llvm.memset.p0.i64(ptr align 8 %20, i8 0, i64 8, i1 false)
  call void @_ZN4QMapIjP24LBMLBTRUCREQRequestEntryEC2Ev(ptr noundef align 8 dereferenceable_or_null(8) %20) #22
  %21 = getelementptr inbounds nuw %class.LBMLBTRUReceiverTransportEntry, ptr %7, i32 0, i32 9
  %22 = getelementptr inbounds nuw %struct.nstime_t, ptr %21, i32 0, i32 0
  store i64 0, ptr %22, align 8
  %23 = getelementptr inbounds nuw %class.LBMLBTRUReceiverTransportEntry, ptr %7, i32 0, i32 9
  %24 = getelementptr inbounds nuw %struct.nstime_t, ptr %23, i32 0, i32 1
  store i32 0, ptr %24, align 8
  %25 = getelementptr inbounds nuw %class.LBMLBTRUReceiverTransportEntry, ptr %7, i32 0, i32 11
  %26 = getelementptr inbounds nuw %struct.nstime_t, ptr %25, i32 0, i32 0
  store i64 0, ptr %26, align 8
  %27 = getelementptr inbounds nuw %class.LBMLBTRUReceiverTransportEntry, ptr %7, i32 0, i32 11
  %28 = getelementptr inbounds nuw %struct.nstime_t, ptr %27, i32 0, i32 1
  store i32 0, ptr %28, align 8
  %29 = getelementptr inbounds nuw %class.LBMLBTRUReceiverTransportEntry, ptr %7, i32 0, i32 1
  invoke void @_ZN15QTreeWidgetItem7setTextEiRK7QString(ptr noundef align 8 dereferenceable_or_null(92) %7, i32 noundef 0, ptr noundef align 8 dereferenceable(24) %29)
          to label %30 unwind label %31

30:                                               ; preds = %2
  ret void

31:                                               ; preds = %2
  %32 = landingpad { ptr, i32 }
          cleanup
  %33 = extractvalue { ptr, i32 } %32, 0
  store ptr %33, ptr %5, align 8
  %34 = extractvalue { ptr, i32 } %32, 1
  store i32 %34, ptr %6, align 4
  call void @_ZN4QMapIjP24LBMLBTRUCREQRequestEntryED2Ev(ptr noundef align 8 dereferenceable_or_null(8) %20) #22
  call void @_ZN4QMapIjP16LBMLBTRUSQNEntryED2Ev(ptr noundef align 8 dereferenceable_or_null(8) %19) #22
  call void @_ZN4QMapIjP16LBMLBTRUSQNEntryED2Ev(ptr noundef align 8 dereferenceable_or_null(8) %18) #22
  call void @_ZN7QStringD2Ev(ptr noundef align 8 dereferenceable_or_null(24) %8) #22
  call void @_ZN15QTreeWidgetItemD2Ev(ptr noundef align 8 dereferenceable_or_null(92) %7) #22
  br label %35

35:                                               ; preds = %31
  %36 = load ptr, ptr %5, align 8
  %37 = load i32, ptr %6, align 4
  %38 = insertvalue { ptr, i32 } poison, ptr %36, 0
  %39 = insertvalue { ptr, i32 } %38, i32 %37, 1
  resume { ptr, i32 } %39
}